target datalayout = "e-m:e-p270:32:32-p271:32:32-p272:64:64-i64:64-i128:128-f80:128-n8:16:32:64-S128"
target triple = "x86_64-pc-linux-gnu"

; Function Attrs: nounwind uwtable
define void @swab(ptr noundef %0, ptr noundef %1, i64 noundef %2) #0 {
  %4 = alloca ptr, align 8
  %5 = alloca ptr, align 8
  %6 = alloca i64, align 8
  %7 = alloca ptr, align 8
  %8 = alloca ptr, align 8
  %9 = alloca ptr, align 8
  %10 = alloca i8, align 1
  store ptr %0, ptr %4, align 8
  store ptr %1, ptr %5, align 8
  store i64 %2, ptr %6, align 8
  %11 = load ptr, ptr %4, align 8
  store ptr %11, ptr %7, align 8
  %12 = load ptr, ptr %5, align 8
  store ptr %12, ptr %8, align 8
  %13 = load i64, ptr %6, align 8
  %14 = icmp sgt i64 %13, 1
  br i1 %14, label %15, label %37

15:                                               ; preds = %3
  %16 = load ptr, ptr %8, align 8
  %17 = load i64, ptr %6, align 8
  %18 = and i64 %17, -2
  %19 = getelementptr inbounds i8, ptr %16, i64 %18
  store ptr %19, ptr %9, align 8
  br label %20

20:                                               ; preds = %24, %15
  %21 = load ptr, ptr %8, align 8
  %22 = load ptr, ptr %9, align 8
  %23 = icmp ne ptr %21, %22
  br i1 %23, label %24, label %36

24:                                               ; preds = %20
  %25 = load ptr, ptr %7, align 8
  %26 = getelementptr inbounds i8, ptr %25, i32 1
  store ptr %26, ptr %7, align 8
  %27 = load i8, ptr %25, align 1
  store i8 %27, ptr %10, align 1
  %28 = load ptr, ptr %7, align 8
  %29 = getelementptr inbounds i8, ptr %28, i32 1
  store ptr %29, ptr %7, align 8
  %30 = load i8, ptr %28, align 1
  %31 = load ptr, ptr %8, align 8
  %32 = getelementptr inbounds i8, ptr %31, i32 1
  store ptr %32, ptr %8, align 8
  store i8 %30, ptr %31, align 1
  %33 = load i8, ptr %10, align 1
  %34 = load ptr, ptr %8, align 8
  %35 = getelementptr inbounds i8, ptr %34, i32 1
  store ptr %35, ptr %8, align 8
  store i8 %33, ptr %34, align 1
  br label %20, !llvm.loop !6

36:                                               ; preds = %20
  br label %37

37:                                               ; preds = %36, %3
  ret void
}


!llvm.module.flags = !{!0, !1, !2, !3, !4, !5}

!0 = !{i32 7, !"Dwarf Version", i32 5}
!1 = !{i32 2, !"Debug Info Version", i32 3}
!2 = !{i32 1, !"wchar_size", i32 4}
!3 = !{i32 8, !"PIC Level", i32 2}
!4 = !{i32 7, !"uwtable", i32 2}
!5 = !{i32 7, !"frame-pointer", i32 2}
!6 = distinct !{!6, !7}
!7 = !{!"llvm.loop.mustprogress"}
