; ModuleID = 'bench/nuttx/original/lib_swab.c.ll'
source_filename = "bench/nuttx/original/lib_swab.c.ll"
target datalayout = "e-m:e-p270:32:32-p271:32:32-p272:64:64-i64:64-i128:128-f80:128-n8:16:32:64-S128"
target triple = "x86_64-pc-linux-gnu"

; Function Attrs: nofree norecurse nosync nounwind memory(argmem: readwrite) uwtable
define void @swab(ptr noundef readonly captures(none) %0, ptr noundef writeonly %1, i64 noundef %2) local_unnamed_addr #0 {
  %4 = icmp sgt i64 %2, 1
  br i1 %4, label %.lr.ph.preheader, label %.loopexit

.lr.ph.preheader:                                 ; preds = %3
  %5 = and i64 %2, 9223372036854775806
  %6 = getelementptr inbounds nuw i8, ptr %1, i64 %5
  br label %.lr.ph

.lr.ph:                                           ; preds = %.lr.ph.preheader, %.lr.ph
  %.015 = phi ptr [ %9, %.lr.ph ], [ %0, %.lr.ph.preheader ]
  %.01114 = phi ptr [ %12, %.lr.ph ], [ %1, %.lr.ph.preheader ]
  %7 = getelementptr inbounds nuw i8, ptr %.015, i64 1
  %8 = load i8, ptr %.015, align 1
  %9 = getelementptr inbounds nuw i8, ptr %.015, i64 2
  %10 = load i8, ptr %7, align 1
  %11 = getelementptr inbounds nuw i8, ptr %.01114, i64 1
  store i8 %10, ptr %.01114, align 1
  %12 = getelementptr inbounds nuw i8, ptr %.01114, i64 2
  store i8 %8, ptr %11, align 1
  %.not = icmp eq ptr %12, %6
  br i1 %.not, label %.loopexit, label %.lr.ph, !llvm.loop !6

.loopexit:                                        ; preds = %.lr.ph, %3
  ret void
}


!llvm.module.flags = !{!0, !1, !2, !3, !4, !5}

!0 = !{i32 7, !"Dwarf Version", i32 5}
!1 = !{i32 2, !"Debug Info Version", i32 3}
!2 = !{i32 1, !"wchar_size", i32 4}
!3 = !{i32 8, !"PIC Level", i32 2}
!4 = !{i32 7, !"uwtable", i32 2}
!5 = !{i32 7, !"frame-pointer", i32 2}
!6 = distinct !{!6, !7}
!7 = !{!"llvm.loop.mustprogress"}
